; Function Attrs: mustprogress nounwind uwtable
define hidden void @_ZN10HeapShared28reset_archived_object_statesEP10JavaThread(ptr noundef %0) local_unnamed_addr #2 align 2 {
  %2 = alloca %class.JavaValue, align 8
  %3 = load volatile ptr, ptr getelementptr inbounds (i8, ptr @_ZN16LogTagSetMappingILN6LogTag4typeE14ELS1_0ELS1_0ELS1_0ELS1_0ELS1_0EE7_tagsetE, i64 56), align 8
  %.not = icmp eq ptr %3, null
  br i1 %.not, label %5, label %4

4:                                                ; preds = %1
  tail call void (ptr, ...) @_ZN7LogImplILN6LogTag4typeE14ELS1_0ELS1_0ELS1_0ELS1_0ELS1_0EE5writeILN8LogLevel4typeE2EEEvPKcz(ptr noundef nonnull @.str.33)
  br label %5

5:                                                ; preds = %1, %4
  %6 = tail call noundef ptr @_ZN16SystemDictionary20java_platform_loaderEv() #20
  tail call fastcc void @_ZL12reset_statesP7oopDescP10JavaThread(ptr noundef %6, ptr noundef %0)
  %7 = getelementptr inbounds i8, ptr %0, i64 8
  %8 = load ptr, ptr %7, align 8
  %.not10 = icmp eq ptr %8, null
  br i1 %.not10, label %9, label %41

9:                                                ; preds = %5
  %10 = load volatile ptr, ptr getelementptr inbounds (i8, ptr @_ZN16LogTagSetMappingILN6LogTag4typeE14ELS1_0ELS1_0ELS1_0ELS1_0ELS1_0EE7_tagsetE, i64 56), align 8
  %.not11 = icmp eq ptr %10, null
  br i1 %.not11, label %12, label %11

11:                                               ; preds = %9
  tail call void (ptr, ...) @_ZN7LogImplILN6LogTag4typeE14ELS1_0ELS1_0ELS1_0ELS1_0ELS1_0EE5writeILN8LogLevel4typeE2EEEvPKcz(ptr noundef nonnull @.str.34)
  br label %12

12:                                               ; preds = %9, %11
  %13 = tail call noundef ptr @_ZN16SystemDictionary18java_system_loaderEv() #20
  tail call fastcc void @_ZL12reset_statesP7oopDescP10JavaThread(ptr noundef %13, ptr noundef nonnull %0)
  %14 = load ptr, ptr %7, align 8
  %.not12 = icmp eq ptr %14, null
  br i1 %.not12, label %15, label %41

15:                                               ; preds = %12
  %16 = load volatile ptr, ptr getelementptr inbounds (i8, ptr @_ZN16LogTagSetMappingILN6LogTag4typeE14ELS1_0ELS1_0ELS1_0ELS1_0ELS1_0EE7_tagsetE, i64 56), align 8
  %.not13 = icmp eq ptr %16, null
  br i1 %.not13, label %18, label %17

17:                                               ; preds = %15
  tail call void (ptr, ...) @_ZN7LogImplILN6LogTag4typeE14ELS1_0ELS1_0ELS1_0ELS1_0ELS1_0EE5writeILN8LogLevel4typeE2EEEvPKcz(ptr noundef nonnull @.str.35)
  br label %18

18:                                               ; preds = %15, %17
  store i8 12, ptr %2, align 8
  %19 = load ptr, ptr getelementptr inbounds (i8, ptr @_ZN9vmClasses8_klassesE, i64 696), align 8
  %20 = load ptr, ptr getelementptr inbounds (i8, ptr @_ZN6Symbol11_vm_symbolsE, i64 3512), align 8
  %21 = load ptr, ptr getelementptr inbounds (i8, ptr @_ZN6Symbol11_vm_symbolsE, i64 7328), align 8
  call void @_ZN9JavaCalls11call_staticEP9JavaValueP5KlassP6SymbolS5_P10JavaThread(ptr noundef nonnull %2, ptr noundef %19, ptr noundef %20, ptr noundef %21, ptr noundef nonnull %0) #20
  %22 = load ptr, ptr %7, align 8
  %.not14 = icmp eq ptr %22, null
  br i1 %.not14, label %23, label %41

23:                                               ; preds = %18
  %24 = getelementptr inbounds i8, ptr %2, i64 8
  %25 = load ptr, ptr %24, align 8
  %26 = icmp eq ptr %25, null
  br i1 %26, label %_ZNK6HandleclEv.exit, label %27

27:                                               ; preds = %23
  %28 = getelementptr inbounds i8, ptr %0, i64 808
  %29 = load ptr, ptr %28, align 8
  %30 = getelementptr inbounds i8, ptr %29, i64 40
  %31 = load ptr, ptr %30, align 8
  %32 = getelementptr inbounds i8, ptr %29, i64 32
  %33 = load ptr, ptr %32, align 8
  %34 = ptrtoint ptr %31 to i64
  %35 = ptrtoint ptr %33 to i64
  %36 = sub i64 %34, %35
  %.not.i.i.i.i = icmp ult i64 %36, 8
  br i1 %.not.i.i.i.i, label %39, label %37

37:                                               ; preds = %27
  %38 = getelementptr inbounds i8, ptr %33, i64 8
  store ptr %38, ptr %32, align 8
  br label %_ZN6HandleC2EP6ThreadP7oopDesc.exit

39:                                               ; preds = %27
  %40 = call noundef ptr @_ZN5Arena4growEmN17AllocFailStrategy13AllocFailEnumE(ptr noundef nonnull align 8 dereferenceable(48) %29, i64 noundef 8, i32 noundef 0) #20
  br label %_ZN6HandleC2EP6ThreadP7oopDesc.exit

_ZN6HandleC2EP6ThreadP7oopDesc.exit:              ; preds = %37, %39
  %.0.i.i.i.i = phi ptr [ %33, %37 ], [ %40, %39 ]
  store ptr %25, ptr %.0.i.i.i.i, align 8
  br label %_ZNK6HandleclEv.exit

_ZNK6HandleclEv.exit:                             ; preds = %23, %_ZN6HandleC2EP6ThreadP7oopDesc.exit
  call fastcc void @_ZL12reset_statesP7oopDescP10JavaThread(ptr noundef %25, ptr noundef nonnull %0)
  br label %41

41:                                               ; preds = %_ZNK6HandleclEv.exit, %18, %12, %5
  ret void
}